; Function Attrs: mustprogress uwtable
define noundef zeroext i1 @_ZNK4cvc58internal8TypeNode15isFullyAbstractEv(ptr noundef nonnull readonly align 8 captures(none) dereferenceable(8) %0) local_unnamed_addr #4 align 2 {
  %2 = load ptr, ptr %0, align 8, !tbaa !3
  %3 = getelementptr inbounds nuw i8, ptr %2, i64 8
  %4 = load i64, ptr %3, align 8
  %5 = and i64 %4, 1023
  %6 = icmp eq i64 %5, 15
  br i1 %6, label %7, label %11

7:                                                ; preds = %1
  %8 = tail call noundef nonnull align 4 dereferenceable(4) ptr @_ZNK4cvc58internal4expr9NodeValue8getConstINS0_12AbstractTypeEEERKT_v(ptr noundef nonnull align 8 dereferenceable(24) %2)
  %9 = tail call noundef i32 @_ZNK4cvc58internal12AbstractType7getKindEv(ptr noundef nonnull align 4 dereferenceable(4) %8)
  %10 = icmp eq i32 %9, 15
  br label %11

11:                                               ; preds = %7, %1
  %12 = phi i1 [ false, %1 ], [ %10, %7 ]
  ret i1 %12
}